target datalayout = "e-m:e-p270:32:32-p271:32:32-p272:64:64-i64:64-i128:128-f80:128-n8:16:32:64-S128"
target triple = "x86_64-pc-linux-gnu"

%struct.AVFormatContext = type { ptr, ptr, ptr, ptr, ptr, i32, i32, ptr, i32, ptr, i32, ptr, ptr, i64, i64, i64, i32, i32, i32, i64, i64, ptr, i32, i32, ptr, i32, i32, i32, i32, ptr, i64, i32, i32, %struct.AVIOInterruptCB, i32, i32, i32, i32, i64, i32, i32, i32, i32, i32, i32, i32, i32, i32, i32, i32, i32, i64, i32, i32, i32, i32, i32, ptr, ptr, ptr, ptr, i32, ptr, ptr, ptr, ptr, i32, ptr, ptr, i64, ptr, ptr, ptr, i64 }
%struct.AVIOInterruptCB = type { ptr, ptr }
%struct.AIFFOutputContext = type { ptr, i64, i64, i64, i32, %struct.PacketList, i32, i32 }
%struct.PacketList = type { ptr, ptr }
%struct.AVStream = type { ptr, i32, i32, ptr, ptr, %struct.AVRational, i64, i64, i64, i32, i32, %struct.AVRational, ptr, %struct.AVRational, %struct.AVPacket, i32, %struct.AVRational, i32 }
%struct.AVPacket = type { ptr, i64, i64, ptr, i32, i32, i32, ptr, i32, i64, i64, ptr, ptr, %struct.AVRational }
%struct.AVRational = type { i32, i32 }

@.str.27 = private unnamed_addr constant [51 x i8] c"Got more than one picture in stream %d, ignoring.\0A\00", align 1

; Function Attrs: nounwind uwtable
define internal i32 @aiff_write_packet(ptr noundef %0, ptr noundef %1) #0 {
  %3 = alloca i32, align 4
  %4 = alloca ptr, align 8
  %5 = alloca ptr, align 8
  %6 = alloca ptr, align 8
  %7 = alloca ptr, align 8
  %8 = alloca i32, align 4
  store ptr %0, ptr %4, align 8, !tbaa !4
  store ptr %1, ptr %5, align 8, !tbaa !66
  call void @llvm.lifetime.start.p0(i64 8, ptr %6) #6
  %9 = load ptr, ptr %4, align 8, !tbaa !4
  %10 = getelementptr inbounds nuw %struct.AVFormatContext, ptr %9, i32 0, i32 3
  %11 = load ptr, ptr %10, align 8, !tbaa !9
  store ptr %11, ptr %6, align 8, !tbaa !26
  call void @llvm.lifetime.start.p0(i64 8, ptr %7) #6
  %12 = load ptr, ptr %4, align 8, !tbaa !4
  %13 = getelementptr inbounds nuw %struct.AVFormatContext, ptr %12, i32 0, i32 4
  %14 = load ptr, ptr %13, align 8, !tbaa !28
  store ptr %14, ptr %7, align 8, !tbaa !29
  %15 = load ptr, ptr %5, align 8, !tbaa !66
  %16 = getelementptr inbounds nuw %struct.AVPacket, ptr %15, i32 0, i32 5
  %17 = load i32, ptr %16, align 4, !tbaa !68
  %18 = load ptr, ptr %6, align 8, !tbaa !26
  %19 = getelementptr inbounds nuw %struct.AIFFOutputContext, ptr %18, i32 0, i32 4
  %20 = load i32, ptr %19, align 8, !tbaa !31
  %21 = icmp eq i32 %17, %20
  br i1 %21, label %22, label %30

22:                                               ; preds = %2
  %23 = load ptr, ptr %7, align 8, !tbaa !29
  %24 = load ptr, ptr %5, align 8, !tbaa !66
  %25 = getelementptr inbounds nuw %struct.AVPacket, ptr %24, i32 0, i32 3
  %26 = load ptr, ptr %25, align 8, !tbaa !69
  %27 = load ptr, ptr %5, align 8, !tbaa !66
  %28 = getelementptr inbounds nuw %struct.AVPacket, ptr %27, i32 0, i32 4
  %29 = load i32, ptr %28, align 8, !tbaa !70
  call void @avio_write(ptr noundef %23, ptr noundef %26, i32 noundef %29)
  br label %67

30:                                               ; preds = %2
  %31 = load ptr, ptr %4, align 8, !tbaa !4
  %32 = getelementptr inbounds nuw %struct.AVFormatContext, ptr %31, i32 0, i32 7
  %33 = load ptr, ptr %32, align 8, !tbaa !36
  %34 = load ptr, ptr %5, align 8, !tbaa !66
  %35 = getelementptr inbounds nuw %struct.AVPacket, ptr %34, i32 0, i32 5
  %36 = load i32, ptr %35, align 4, !tbaa !68
  %37 = sext i32 %36 to i64
  %38 = getelementptr inbounds ptr, ptr %33, i64 %37
  %39 = load ptr, ptr %38, align 8, !tbaa !37
  %40 = getelementptr inbounds nuw %struct.AVStream, ptr %39, i32 0, i32 8
  %41 = load i64, ptr %40, align 8, !tbaa !71
  %42 = icmp eq i64 %41, 1
  br i1 %42, label %43, label %48

43:                                               ; preds = %30
  %44 = load ptr, ptr %4, align 8, !tbaa !4
  %45 = load ptr, ptr %5, align 8, !tbaa !66
  %46 = getelementptr inbounds nuw %struct.AVPacket, ptr %45, i32 0, i32 5
  %47 = load i32, ptr %46, align 4, !tbaa !68
  call void (ptr, i32, ptr, ...) @av_log(ptr noundef %44, i32 noundef 24, ptr noundef @.str.27, i32 noundef %47)
  br label %48

48:                                               ; preds = %43, %30
  %49 = load ptr, ptr %4, align 8, !tbaa !4
  %50 = getelementptr inbounds nuw %struct.AVFormatContext, ptr %49, i32 0, i32 7
  %51 = load ptr, ptr %50, align 8, !tbaa !36
  %52 = load ptr, ptr %5, align 8, !tbaa !66
  %53 = getelementptr inbounds nuw %struct.AVPacket, ptr %52, i32 0, i32 5
  %54 = load i32, ptr %53, align 4, !tbaa !68
  %55 = sext i32 %54 to i64
  %56 = getelementptr inbounds ptr, ptr %51, i64 %55
  %57 = load ptr, ptr %56, align 8, !tbaa !37
  %58 = getelementptr inbounds nuw %struct.AVStream, ptr %57, i32 0, i32 8
  %59 = load i64, ptr %58, align 8, !tbaa !71
  %60 = icmp sge i64 %59, 1
  br i1 %60, label %61, label %62

61:                                               ; preds = %48
  store i32 0, ptr %3, align 4
  store i32 1, ptr %8, align 4
  br label %68

62:                                               ; preds = %48
  %63 = load ptr, ptr %6, align 8, !tbaa !26
  %64 = getelementptr inbounds nuw %struct.AIFFOutputContext, ptr %63, i32 0, i32 5
  %65 = load ptr, ptr %5, align 8, !tbaa !66
  %66 = call i32 @avpriv_packet_list_put(ptr noundef %64, ptr noundef %65, ptr noundef null, i32 noundef 0)
  store i32 %66, ptr %3, align 4
  store i32 1, ptr %8, align 4
  br label %68

67:                                               ; preds = %22
  store i32 0, ptr %3, align 4
  store i32 1, ptr %8, align 4
  br label %68

68:                                               ; preds = %67, %62, %61
  call void @llvm.lifetime.end.p0(i64 8, ptr %7) #6
  call void @llvm.lifetime.end.p0(i64 8, ptr %6) #6
  %69 = load i32, ptr %3, align 4
  ret i32 %69
}