; Function Attrs: nounwind uwtable
define internal i32 @aiff_write_packet(ptr noundef %0, ptr noundef %1) #0 {
  %3 = getelementptr inbounds nuw i8, ptr %0, i64 24
  %4 = load ptr, ptr %3, align 8, !tbaa !4
  %5 = getelementptr inbounds nuw i8, ptr %1, i64 36
  %6 = load i32, ptr %5, align 4, !tbaa !61
  %7 = getelementptr inbounds nuw i8, ptr %4, i64 32
  %8 = load i32, ptr %7, align 8, !tbaa !25
  %9 = icmp eq i32 %6, %8
  br i1 %9, label %10, label %17

10:                                               ; preds = %2
  %11 = getelementptr inbounds nuw i8, ptr %0, i64 32
  %12 = load ptr, ptr %11, align 8, !tbaa !24
  %13 = getelementptr inbounds nuw i8, ptr %1, i64 24
  %14 = load ptr, ptr %13, align 8, !tbaa !62
  %15 = getelementptr inbounds nuw i8, ptr %1, i64 32
  %16 = load i32, ptr %15, align 8, !tbaa !63
  tail call void @avio_write(ptr noundef %12, ptr noundef %14, i32 noundef %16) #5
  br label %33

17:                                               ; preds = %2
  %18 = getelementptr inbounds nuw i8, ptr %0, i64 48
  %19 = load ptr, ptr %18, align 8, !tbaa !30
  %20 = sext i32 %6 to i64
  %21 = getelementptr inbounds ptr, ptr %19, i64 %20
  %22 = load ptr, ptr %21, align 8, !tbaa !31
  %23 = getelementptr inbounds nuw i8, ptr %22, i64 56
  %24 = load i64, ptr %23, align 8, !tbaa !64
  %25 = icmp eq i64 %24, 1
  br i1 %25, label %26, label %27

26:                                               ; preds = %17
  tail call void (ptr, i32, ptr, ...) @av_log(ptr noundef nonnull %0, i32 noundef 24, ptr noundef nonnull @.str.27, i32 noundef %6) #5
  %.pre = load ptr, ptr %18, align 8, !tbaa !30
  %.pre16 = load i32, ptr %5, align 4, !tbaa !61
  %.phi.trans.insert = sext i32 %.pre16 to i64
  %.phi.trans.insert17 = getelementptr inbounds ptr, ptr %.pre, i64 %.phi.trans.insert
  %.pre18 = load ptr, ptr %.phi.trans.insert17, align 8, !tbaa !31
  %.phi.trans.insert19 = getelementptr inbounds nuw i8, ptr %.pre18, i64 56
  %.pre20 = load i64, ptr %.phi.trans.insert19, align 8, !tbaa !64
  br label %27

27:                                               ; preds = %26, %17
  %28 = phi i64 [ %.pre20, %26 ], [ %24, %17 ]
  %29 = icmp sgt i64 %28, 0
  br i1 %29, label %33, label %30

30:                                               ; preds = %27
  %31 = getelementptr inbounds nuw i8, ptr %4, i64 40
  %32 = tail call i32 @avpriv_packet_list_put(ptr noundef nonnull %31, ptr noundef nonnull %1, ptr noundef null, i32 noundef 0) #5
  br label %33

33:                                               ; preds = %27, %10, %30
  %.0 = phi i32 [ 0, %10 ], [ %32, %30 ], [ 0, %27 ]
  ret i32 %.0
}